target datalayout = "e-m:e-p270:32:32-p271:32:32-p272:64:64-i64:64-i128:128-f80:128-n8:16:32:64-S128"
target triple = "x86_64-pc-linux-gnu"

%"class.std::vector.4" = type { %"struct.std::_Vector_base.5" }
%"struct.std::_Vector_base.5" = type { %"struct.std::_Vector_base<casadi::Matrix<casadi::SXElem>, std::allocator<casadi::Matrix<casadi::SXElem>>>::_Vector_impl" }
%"struct.std::_Vector_base<casadi::Matrix<casadi::SXElem>, std::allocator<casadi::Matrix<casadi::SXElem>>>::_Vector_impl" = type { %"struct.std::_Vector_base<casadi::Matrix<casadi::SXElem>, std::allocator<casadi::Matrix<casadi::SXElem>>>::_Vector_impl_data" }
%"struct.std::_Vector_base<casadi::Matrix<casadi::SXElem>, std::allocator<casadi::Matrix<casadi::SXElem>>>::_Vector_impl_data" = type { ptr, ptr, ptr }

; Function Attrs: mustprogress nounwind uwtable
define linkonce_odr hidden void @_ZNSt15__new_allocatorIN6casadi6MatrixINS0_6SXElemEEEEC2Ev(ptr noundef nonnull align 1 dereferenceable(1) %0) unnamed_addr #5 comdat align 2 {
  %2 = alloca ptr, align 8
  store ptr %0, ptr %2, align 8, !tbaa !876
  ret void
}

; Function Attrs: mustprogress nounwind uwtable
define linkonce_odr hidden void @_ZNSt12_Vector_baseIN6casadi6MatrixINS0_6SXElemEEESaIS3_EE17_Vector_impl_dataC2Ev(ptr noundef nonnull align 8 dereferenceable(24) %0) unnamed_addr #5 comdat align 2 {
  %2 = alloca ptr, align 8
  store ptr %0, ptr %2, align 8, !tbaa !873
  %3 = load ptr, ptr %2, align 8
  %4 = getelementptr inbounds nuw %"struct.std::_Vector_base<casadi::Matrix<casadi::SXElem>, std::allocator<casadi::Matrix<casadi::SXElem>>>::_Vector_impl_data", ptr %3, i32 0, i32 0
  store ptr null, ptr %4, align 8, !tbaa !66
  %5 = getelementptr inbounds nuw %"struct.std::_Vector_base<casadi::Matrix<casadi::SXElem>, std::allocator<casadi::Matrix<casadi::SXElem>>>::_Vector_impl_data", ptr %3, i32 0, i32 1
  store ptr null, ptr %5, align 8, !tbaa !68
  %6 = getelementptr inbounds nuw %"struct.std::_Vector_base<casadi::Matrix<casadi::SXElem>, std::allocator<casadi::Matrix<casadi::SXElem>>>::_Vector_impl_data", ptr %3, i32 0, i32 2
  store ptr null, ptr %6, align 8, !tbaa !875
  ret void
}

; Function Attrs: mustprogress nounwind uwtable
define linkonce_odr hidden void @_ZNSaIN6casadi6MatrixINS_6SXElemEEEEC2Ev(ptr noundef nonnull align 1 dereferenceable(1) %0) unnamed_addr #5 comdat align 2 {
  %2 = alloca ptr, align 8
  store ptr %0, ptr %2, align 8, !tbaa !64
  %3 = load ptr, ptr %2, align 8
  call void @_ZNSt15__new_allocatorIN6casadi6MatrixINS0_6SXElemEEEEC2Ev(ptr noundef nonnull align 1 dereferenceable(1) %3) #3
  ret void
}

; Function Attrs: mustprogress nounwind uwtable
define linkonce_odr hidden void @_ZNSt12_Vector_baseIN6casadi6MatrixINS0_6SXElemEEESaIS3_EE12_Vector_implC2Ev(ptr noundef nonnull align 8 dereferenceable(24) %0) unnamed_addr #5 comdat align 2 {
  %2 = alloca ptr, align 8
  store ptr %0, ptr %2, align 8, !tbaa !871
  %3 = load ptr, ptr %2, align 8
  call void @_ZNSaIN6casadi6MatrixINS_6SXElemEEEEC2Ev(ptr noundef nonnull align 1 dereferenceable(1) %3) #3
  call void @_ZNSt12_Vector_baseIN6casadi6MatrixINS0_6SXElemEEESaIS3_EE17_Vector_impl_dataC2Ev(ptr noundef nonnull align 8 dereferenceable(24) %3) #3
  ret void
}

; Function Attrs: mustprogress nounwind uwtable
define linkonce_odr hidden void @_ZNSt12_Vector_baseIN6casadi6MatrixINS0_6SXElemEEESaIS3_EEC2Ev(ptr noundef nonnull align 8 dereferenceable(24) %0) unnamed_addr #5 comdat align 2 {
  %2 = alloca ptr, align 8
  store ptr %0, ptr %2, align 8, !tbaa !869
  %3 = load ptr, ptr %2, align 8
  %4 = getelementptr inbounds nuw %"struct.std::_Vector_base.5", ptr %3, i32 0, i32 0
  call void @_ZNSt12_Vector_baseIN6casadi6MatrixINS0_6SXElemEEESaIS3_EE12_Vector_implC2Ev(ptr noundef nonnull align 8 dereferenceable(24) %4) #3
  ret void
}

; Function Attrs: mustprogress nounwind uwtable
define linkonce_odr hidden void @_ZNSt6vectorIN6casadi6MatrixINS0_6SXElemEEESaIS3_EEC2Ev(ptr noundef nonnull align 8 dereferenceable(24) %0) unnamed_addr #5 comdat align 2 {
  %2 = alloca ptr, align 8
  store ptr %0, ptr %2, align 8, !tbaa !46
  %3 = load ptr, ptr %2, align 8
  call void @_ZNSt12_Vector_baseIN6casadi6MatrixINS0_6SXElemEEESaIS3_EEC2Ev(ptr noundef nonnull align 8 dereferenceable(24) %3) #3
  ret void
}

; Function Attrs: mustprogress uwtable
define void @_ZNK6casadi8FunctionclERKSt6vectorINS_6MatrixINS_6SXElemEEESaIS4_EE(ptr dead_on_unwind noalias writable sret(%"class.std::vector.4") align 8 %0, ptr noundef nonnull align 8 dereferenceable(8) %1, ptr noundef nonnull align 8 dereferenceable(24) %2) #6 align 2 personality ptr @__gxx_personality_v0 {
  %4 = alloca ptr, align 8
  %5 = alloca ptr, align 8
  %6 = alloca ptr, align 8
  %7 = alloca i1, align 1
  %8 = alloca ptr, align 8
  %9 = alloca i32, align 4
  store ptr %0, ptr %4, align 8
  store ptr %1, ptr %5, align 8, !tbaa !23
  store ptr %2, ptr %6, align 8, !tbaa !46
  %10 = load ptr, ptr %5, align 8
  store i1 false, ptr %7, align 1
  call void @_ZNSt6vectorIN6casadi6MatrixINS0_6SXElemEEESaIS3_EEC2Ev(ptr noundef nonnull align 8 dereferenceable(24) %0) #3
  %11 = load ptr, ptr %6, align 8, !tbaa !46
  invoke void @_ZNK6casadi8Function4callERKSt6vectorINS_6MatrixINS_6SXElemEEESaIS4_EERS6_bb(ptr noundef nonnull align 8 dereferenceable(8) %10, ptr noundef nonnull align 8 dereferenceable(24) %11, ptr noundef nonnull align 8 dereferenceable(24) %0, i1 noundef zeroext false, i1 noundef zeroext false)
          to label %12 unwind label %14

12:                                               ; preds = %3
  store i1 true, ptr %7, align 1
  %13 = load i1, ptr %7, align 1
  br i1 %13, label %19, label %18

14:                                               ; preds = %3
  %15 = landingpad { ptr, i32 }
          cleanup
  %16 = extractvalue { ptr, i32 } %15, 0
  store ptr %16, ptr %8, align 8
  %17 = extractvalue { ptr, i32 } %15, 1
  store i32 %17, ptr %9, align 4
  call void @_ZNSt6vectorIN6casadi6MatrixINS0_6SXElemEEESaIS3_EED2Ev(ptr noundef nonnull align 8 dereferenceable(24) %0) #3
  br label %20

18:                                               ; preds = %12
  call void @_ZNSt6vectorIN6casadi6MatrixINS0_6SXElemEEESaIS3_EED2Ev(ptr noundef nonnull align 8 dereferenceable(24) %0) #3
  br label %19

19:                                               ; preds = %18, %12
  ret void

20:                                               ; preds = %14
  %21 = load ptr, ptr %8, align 8
  %22 = load i32, ptr %9, align 4
  %23 = insertvalue { ptr, i32 } poison, ptr %21, 0
  %24 = insertvalue { ptr, i32 } %23, i32 %22, 1
  resume { ptr, i32 } %24
}