; Function Attrs: mustprogress uwtable
define void @_ZNK6casadi8FunctionclERKSt6vectorINS_6MatrixINS_6SXElemEEESaIS4_EE(ptr dead_on_unwind noalias nonnull writable sret(%"class.std::vector.4") align 8 initializes((0, 24)) %0, ptr noundef nonnull align 8 dereferenceable(8) %1, ptr noundef nonnull align 8 dereferenceable(24) %2) local_unnamed_addr #4 align 2 personality ptr @__gxx_personality_v0 {
  tail call void @llvm.memset.p0.i64(ptr noundef nonnull align 8 dereferenceable(24) %0, i8 0, i64 24, i1 false)
  invoke void @_ZNK6casadi8Function4callERKSt6vectorINS_6MatrixINS_6SXElemEEESaIS4_EERS6_bb(ptr noundef nonnull align 8 dereferenceable(8) %1, ptr noundef nonnull align 8 dereferenceable(24) %2, ptr noundef nonnull align 8 dereferenceable(24) %0, i1 noundef zeroext false, i1 noundef zeroext false)
          to label %6 unwind label %4

4:                                                ; preds = %3
  %5 = landingpad { ptr, i32 }
          cleanup
  tail call void @_ZNSt6vectorIN6casadi6MatrixINS0_6SXElemEEESaIS3_EED2Ev(ptr noundef nonnull align 8 dereferenceable(24) %0) #30
  resume { ptr, i32 } %5

6:                                                ; preds = %3
  ret void
}